; Function Attrs: mustprogress uwtable
define hidden noundef zeroext i1 @_ZN12seq_rewriter7lt_charEP4exprS1_(ptr noundef nonnull align 8 dereferenceable(497) %0, ptr noundef %1, ptr noundef %2) local_unnamed_addr #3 align 2 {
  %4 = alloca i32, align 4
  %5 = alloca i32, align 4
  call void @llvm.lifetime.start.p0(i64 4, ptr nonnull %4) #28
  call void @llvm.lifetime.start.p0(i64 4, ptr nonnull %5) #28
  %6 = call noundef zeroext i1 @_ZNK8seq_util13is_const_charEP4exprRj(ptr noundef nonnull align 8 dereferenceable(136) %0, ptr noundef %1, ptr noundef nonnull align 4 dereferenceable(4) %4)
  br i1 %6, label %7, label %13

7:                                                ; preds = %3
  %8 = call noundef zeroext i1 @_ZNK8seq_util13is_const_charEP4exprRj(ptr noundef nonnull align 8 dereferenceable(136) %0, ptr noundef %2, ptr noundef nonnull align 4 dereferenceable(4) %5)
  br i1 %8, label %9, label %13

9:                                                ; preds = %7
  %10 = load i32, ptr %4, align 4, !tbaa !101
  %11 = load i32, ptr %5, align 4, !tbaa !101
  %12 = icmp ult i32 %10, %11
  br label %13

13:                                               ; preds = %9, %7, %3
  %14 = phi i1 [ false, %7 ], [ false, %3 ], [ %12, %9 ]
  call void @llvm.lifetime.end.p0(i64 4, ptr nonnull %5) #28
  call void @llvm.lifetime.end.p0(i64 4, ptr nonnull %4) #28
  ret i1 %14
}